target datalayout = "e-m:e-p270:32:32-p271:32:32-p272:64:64-i64:64-i128:128-f80:128-n8:16:32:64-S128"
target triple = "x86_64-pc-linux-gnu"

%struct.ocsp_responder_id_st = type { i32, %union.anon }
%union.anon = type { ptr }

@.str.1 = private unnamed_addr constant [5 x i8] c"SHA1\00", align 1

; Function Attrs: nounwind uwtable
define i32 @OCSP_RESPID_match_ex(ptr noundef %0, ptr noundef %1, ptr noundef %2, ptr noundef %3) #0 {
  %5 = alloca i32, align 4
  %6 = alloca ptr, align 8
  %7 = alloca ptr, align 8
  %8 = alloca ptr, align 8
  %9 = alloca ptr, align 8
  %10 = alloca ptr, align 8
  %11 = alloca i32, align 4
  %12 = alloca [20 x i8], align 16
  %13 = alloca i32, align 4
  store ptr %0, ptr %6, align 8, !tbaa !80
  store ptr %1, ptr %7, align 8, !tbaa !71
  store ptr %2, ptr %8, align 8, !tbaa !110
  store ptr %3, ptr %9, align 8, !tbaa !111
  call void @llvm.lifetime.start.p0(i64 8, ptr %10) #5
  store ptr null, ptr %10, align 8, !tbaa !106
  call void @llvm.lifetime.start.p0(i64 4, ptr %11) #5
  store i32 0, ptr %11, align 4, !tbaa !17
  %14 = load ptr, ptr %6, align 8, !tbaa !80
  %15 = getelementptr inbounds nuw %struct.ocsp_responder_id_st, ptr %14, i32 0, i32 0
  %16 = load i32, ptr %15, align 8, !tbaa !105
  %17 = icmp eq i32 %16, 1
  br i1 %17, label %18, label %58

18:                                               ; preds = %4
  call void @llvm.lifetime.start.p0(i64 20, ptr %12) #5
  %19 = load ptr, ptr %8, align 8, !tbaa !110
  %20 = load ptr, ptr %9, align 8, !tbaa !111
  %21 = call ptr @EVP_MD_fetch(ptr noundef %19, ptr noundef @.str.1, ptr noundef %20)
  store ptr %21, ptr %10, align 8, !tbaa !106
  %22 = load ptr, ptr %10, align 8, !tbaa !106
  %23 = icmp eq ptr %22, null
  br i1 %23, label %24, label %25

24:                                               ; preds = %18
  store i32 2, ptr %13, align 4
  br label %55

25:                                               ; preds = %18
  %26 = load ptr, ptr %6, align 8, !tbaa !80
  %27 = getelementptr inbounds nuw %struct.ocsp_responder_id_st, ptr %26, i32 0, i32 1
  %28 = load ptr, ptr %27, align 8, !tbaa !67
  %29 = icmp eq ptr %28, null
  br i1 %29, label %30, label %31

30:                                               ; preds = %25
  store i32 2, ptr %13, align 4
  br label %55

31:                                               ; preds = %25
  %32 = load ptr, ptr %7, align 8, !tbaa !71
  %33 = load ptr, ptr %10, align 8, !tbaa !106
  %34 = getelementptr inbounds [20 x i8], ptr %12, i64 0, i64 0
  %35 = call i32 @X509_pubkey_digest(ptr noundef %32, ptr noundef %33, ptr noundef %34, ptr noundef null)
  %36 = icmp ne i32 %35, 0
  br i1 %36, label %38, label %37

37:                                               ; preds = %31
  store i32 2, ptr %13, align 4
  br label %55

38:                                               ; preds = %31
  %39 = load ptr, ptr %6, align 8, !tbaa !80
  %40 = getelementptr inbounds nuw %struct.ocsp_responder_id_st, ptr %39, i32 0, i32 1
  %41 = load ptr, ptr %40, align 8, !tbaa !67
  %42 = call i32 @ASN1_STRING_length(ptr noundef %41)
  %43 = icmp eq i32 %42, 20
  br i1 %43, label %44, label %52

44:                                               ; preds = %38
  %45 = load ptr, ptr %6, align 8, !tbaa !80
  %46 = getelementptr inbounds nuw %struct.ocsp_responder_id_st, ptr %45, i32 0, i32 1
  %47 = load ptr, ptr %46, align 8, !tbaa !67
  %48 = call ptr @ASN1_STRING_get0_data(ptr noundef %47)
  %49 = getelementptr inbounds [20 x i8], ptr %12, i64 0, i64 0
  %50 = call i32 @memcmp(ptr noundef %48, ptr noundef %49, i64 noundef 20) #6
  %51 = icmp eq i32 %50, 0
  br label %52

52:                                               ; preds = %44, %38
  %53 = phi i1 [ false, %38 ], [ %51, %44 ]
  %54 = zext i1 %53 to i32
  store i32 %54, ptr %11, align 4, !tbaa !17
  store i32 0, ptr %13, align 4
  br label %55

55:                                               ; preds = %37, %30, %24, %52
  call void @llvm.lifetime.end.p0(i64 20, ptr %12) #5
  %56 = load i32, ptr %13, align 4
  switch i32 %56, label %83 [
    i32 0, label %57
    i32 2, label %80
  ]

57:                                               ; preds = %55
  br label %79

58:                                               ; preds = %4
  %59 = load ptr, ptr %6, align 8, !tbaa !80
  %60 = getelementptr inbounds nuw %struct.ocsp_responder_id_st, ptr %59, i32 0, i32 0
  %61 = load i32, ptr %60, align 8, !tbaa !105
  %62 = icmp eq i32 %61, 0
  br i1 %62, label %63, label %78

63:                                               ; preds = %58
  %64 = load ptr, ptr %6, align 8, !tbaa !80
  %65 = getelementptr inbounds nuw %struct.ocsp_responder_id_st, ptr %64, i32 0, i32 1
  %66 = load ptr, ptr %65, align 8, !tbaa !67
  %67 = icmp eq ptr %66, null
  br i1 %67, label %68, label %69

68:                                               ; preds = %63
  store i32 0, ptr %5, align 4
  store i32 1, ptr %13, align 4
  br label %83

69:                                               ; preds = %63
  %70 = load ptr, ptr %6, align 8, !tbaa !80
  %71 = getelementptr inbounds nuw %struct.ocsp_responder_id_st, ptr %70, i32 0, i32 1
  %72 = load ptr, ptr %71, align 8, !tbaa !67
  %73 = load ptr, ptr %7, align 8, !tbaa !71
  %74 = call ptr @X509_get_subject_name(ptr noundef %73)
  %75 = call i32 @X509_NAME_cmp(ptr noundef %72, ptr noundef %74)
  %76 = icmp eq i32 %75, 0
  %77 = zext i1 %76 to i32
  store i32 %77, ptr %5, align 4
  store i32 1, ptr %13, align 4
  br label %83

78:                                               ; preds = %58
  br label %79

79:                                               ; preds = %78, %57
  br label %80

80:                                               ; preds = %79, %55
  %81 = load ptr, ptr %10, align 8, !tbaa !106
  call void @EVP_MD_free(ptr noundef %81)
  %82 = load i32, ptr %11, align 4, !tbaa !17
  store i32 %82, ptr %5, align 4
  store i32 1, ptr %13, align 4
  br label %83

83:                                               ; preds = %80, %69, %68, %55
  call void @llvm.lifetime.end.p0(i64 4, ptr %11) #5
  call void @llvm.lifetime.end.p0(i64 8, ptr %10) #5
  %84 = load i32, ptr %5, align 4
  ret i32 %84
}