; Function Attrs: nounwind uwtable
define range(i32 0, 2) i32 @OCSP_RESPID_match_ex(ptr noundef readonly captures(none) %0, ptr noundef %1, ptr noundef %2, ptr noundef %3) local_unnamed_addr #0 {
  %5 = alloca [20 x i8], align 16
  %6 = load i32, ptr %0, align 8, !tbaa !51
  switch i32 %6, label %35 [
    i32 1, label %7
    i32 0, label %26
  ]

7:                                                ; preds = %4
  call void @llvm.lifetime.start.p0(i64 20, ptr nonnull %5) #6
  %8 = tail call ptr @EVP_MD_fetch(ptr noundef %2, ptr noundef nonnull @.str.1, ptr noundef %3) #6
  %9 = icmp eq ptr %8, null
  br i1 %9, label %25, label %10

10:                                               ; preds = %7
  %11 = getelementptr inbounds nuw i8, ptr %0, i64 8
  %12 = load ptr, ptr %11, align 8, !tbaa !47
  %13 = icmp eq ptr %12, null
  br i1 %13, label %25, label %14

14:                                               ; preds = %10
  %15 = call i32 @X509_pubkey_digest(ptr noundef %1, ptr noundef nonnull %8, ptr noundef nonnull %5, ptr noundef null) #6
  %.not = icmp eq i32 %15, 0
  br i1 %.not, label %25, label %16

16:                                               ; preds = %14
  %17 = load ptr, ptr %11, align 8, !tbaa !47
  %18 = call i32 @ASN1_STRING_length(ptr noundef %17) #6
  %19 = icmp eq i32 %18, 20
  br i1 %19, label %20, label %25

20:                                               ; preds = %16
  %21 = load ptr, ptr %11, align 8, !tbaa !47
  %22 = call ptr @ASN1_STRING_get0_data(ptr noundef %21) #6
  %bcmp = call i32 @bcmp(ptr noundef nonnull dereferenceable(20) %22, ptr noundef nonnull dereferenceable(20) %5, i64 20)
  %23 = icmp eq i32 %bcmp, 0
  %24 = zext i1 %23 to i32
  br label %25

25:                                               ; preds = %16, %20, %14, %10, %7
  %.016 = phi i32 [ 0, %7 ], [ 0, %10 ], [ 0, %14 ], [ 0, %16 ], [ %24, %20 ]
  call void @llvm.lifetime.end.p0(i64 20, ptr nonnull %5) #6
  br label %35

26:                                               ; preds = %4
  %27 = getelementptr inbounds nuw i8, ptr %0, i64 8
  %28 = load ptr, ptr %27, align 8, !tbaa !47
  %29 = icmp eq ptr %28, null
  br i1 %29, label %36, label %30

30:                                               ; preds = %26
  %31 = tail call ptr @X509_get_subject_name(ptr noundef %1) #6
  %32 = tail call i32 @X509_NAME_cmp(ptr noundef nonnull %28, ptr noundef %31) #6
  %33 = icmp eq i32 %32, 0
  %34 = zext i1 %33 to i32
  br label %36

35:                                               ; preds = %4, %25
  %.017 = phi ptr [ %8, %25 ], [ null, %4 ]
  %.1 = phi i32 [ %.016, %25 ], [ 0, %4 ]
  call void @EVP_MD_free(ptr noundef %.017) #6
  br label %36

36:                                               ; preds = %26, %35, %30
  %.018 = phi i32 [ %.1, %35 ], [ %34, %30 ], [ 0, %26 ]
  ret i32 %.018
}